; Function Attrs: nofree norecurse nosync nounwind memory(readwrite, inaccessiblemem: none) uwtable
define range(i32 0, 2) i32 @PQsetInstanceData(ptr noundef readonly captures(address_is_null) %0, ptr noundef readnone captures(address) %1, ptr noundef %2) local_unnamed_addr #6 {
  %4 = icmp ne ptr %0, null
  %5 = icmp ne ptr %1, null
  %or.cond = and i1 %4, %5
  br i1 %or.cond, label %.preheader, label %.loopexit

.preheader:                                       ; preds = %3
  %6 = getelementptr inbounds nuw i8, ptr %0, i64 408
  %7 = load i32, ptr %6, align 8
  %8 = icmp sgt i32 %7, 0
  br i1 %8, label %.lr.ph, label %.loopexit

.lr.ph:                                           ; preds = %.preheader
  %9 = getelementptr inbounds nuw i8, ptr %0, i64 400
  %10 = load ptr, ptr %9, align 8
  %wide.trip.count = zext nneg i32 %7 to i64
  br label %12

11:                                               ; preds = %12
  %indvars.iv.next = add nuw nsw i64 %indvars.iv, 1
  %exitcond.not = icmp eq i64 %indvars.iv.next, %wide.trip.count
  br i1 %exitcond.not, label %.loopexit, label %12, !llvm.loop !5

12:                                               ; preds = %.lr.ph, %11
  %indvars.iv = phi i64 [ 0, %.lr.ph ], [ %indvars.iv.next, %11 ]
  %13 = getelementptr inbounds nuw %struct.PGEvent, ptr %10, i64 %indvars.iv
  %14 = load ptr, ptr %13, align 8
  %15 = icmp eq ptr %14, %1
  br i1 %15, label %16, label %11

16:                                               ; preds = %12
  %17 = getelementptr inbounds nuw i8, ptr %13, i64 24
  store ptr %2, ptr %17, align 8
  br label %.loopexit

.loopexit:                                        ; preds = %11, %.preheader, %3, %16
  %.012 = phi i32 [ 1, %16 ], [ 0, %3 ], [ 0, %.preheader ], [ 0, %11 ]
  ret i32 %.012
}